target datalayout = "e-m:e-p270:32:32-p271:32:32-p272:64:64-i64:64-i128:128-f80:128-n8:16:32:64-S128"
target triple = "x86_64-pc-linux-gnu"

%struct.dump_call_arg = type { i64, ptr, i32 }
%struct.w_ivar_arg = type { ptr, i64 }

@rb_eRuntimeError = external global i64, align 8
@.str.53 = private unnamed_addr constant [45 x i8] c"instance variable removed from %li\0B instance\00", align 1
@.str.54 = private unnamed_addr constant [41 x i8] c"instance variable added to %li\0B instance\00", align 1

; Function Attrs: nounwind sspstrong uwtable
define internal void @w_ivar_each(i64 noundef %0, i64 noundef %1, ptr noundef %2) #0 {
  %4 = alloca i64, align 8
  %5 = alloca i64, align 8
  %6 = alloca ptr, align 8
  %7 = alloca i32, align 4
  %8 = alloca %struct.w_ivar_arg, align 8
  %9 = alloca i32, align 4
  %10 = alloca ptr, align 8
  %11 = alloca ptr, align 8
  store i64 %0, ptr %4, align 8, !tbaa !7
  store i64 %1, ptr %5, align 8, !tbaa !7
  store ptr %2, ptr %6, align 8, !tbaa !103
  call void @llvm.lifetime.start.p0(i64 4, ptr %7) #23
  %12 = load ptr, ptr %6, align 8, !tbaa !103
  %13 = getelementptr inbounds nuw %struct.dump_call_arg, ptr %12, i32 0, i32 0
  %14 = load i64, ptr %13, align 8, !tbaa !81
  %15 = call i32 @rb_shape_get_shape_id(i64 noundef %14)
  store i32 %15, ptr %7, align 4, !tbaa !22
  call void @llvm.lifetime.start.p0(i64 16, ptr %8) #23
  %16 = getelementptr inbounds nuw %struct.w_ivar_arg, ptr %8, i32 0, i32 0
  %17 = load ptr, ptr %6, align 8, !tbaa !103
  store ptr %17, ptr %16, align 8, !tbaa !123
  %18 = getelementptr inbounds nuw %struct.w_ivar_arg, ptr %8, i32 0, i32 1
  %19 = load i64, ptr %5, align 8, !tbaa !7
  store i64 %19, ptr %18, align 8, !tbaa !125
  %20 = load i64, ptr %5, align 8, !tbaa !7
  %21 = icmp ne i64 %20, 0
  br i1 %21, label %23, label %22

22:                                               ; preds = %3
  store i32 1, ptr %9, align 4
  br label %57

23:                                               ; preds = %3
  %24 = load i64, ptr %4, align 8, !tbaa !7
  %25 = ptrtoint ptr %8 to i64
  call void @rb_ivar_foreach(i64 noundef %24, ptr noundef @w_obj_each, i64 noundef %25)
  %26 = load i32, ptr %7, align 4, !tbaa !22
  %27 = load ptr, ptr %6, align 8, !tbaa !103
  %28 = getelementptr inbounds nuw %struct.dump_call_arg, ptr %27, i32 0, i32 0
  %29 = load i64, ptr %28, align 8, !tbaa !81
  %30 = call i32 @rb_shape_get_shape_id(i64 noundef %29)
  %31 = icmp ne i32 %26, %30
  br i1 %31, label %32, label %56

32:                                               ; preds = %23
  call void @llvm.lifetime.start.p0(i64 8, ptr %10) #23
  %33 = load i32, ptr %7, align 4, !tbaa !22
  %34 = call ptr @rb_shape_get_shape_by_id(i32 noundef %33)
  store ptr %34, ptr %10, align 8, !tbaa !126
  call void @llvm.lifetime.start.p0(i64 8, ptr %11) #23
  %35 = load ptr, ptr %6, align 8, !tbaa !103
  %36 = getelementptr inbounds nuw %struct.dump_call_arg, ptr %35, i32 0, i32 0
  %37 = load i64, ptr %36, align 8, !tbaa !81
  %38 = call ptr @rb_shape_get_shape(i64 noundef %37)
  store ptr %38, ptr %11, align 8, !tbaa !126
  %39 = load ptr, ptr %10, align 8, !tbaa !126
  %40 = call i64 @rb_shape_depth(ptr noundef %39)
  %41 = load ptr, ptr %11, align 8, !tbaa !126
  %42 = call i64 @rb_shape_depth(ptr noundef %41)
  %43 = icmp ugt i64 %40, %42
  br i1 %43, label %44, label %50

44:                                               ; preds = %32
  %45 = load i64, ptr @rb_eRuntimeError, align 8, !tbaa !7
  %46 = load ptr, ptr %6, align 8, !tbaa !103
  %47 = getelementptr inbounds nuw %struct.dump_call_arg, ptr %46, i32 0, i32 0
  %48 = load i64, ptr %47, align 8, !tbaa !81
  %49 = call i64 @rb_class_of(i64 noundef %48) #27
  call void (i64, ptr, ...) @rb_raise(i64 noundef %45, ptr noundef @.str.53, i64 noundef %49) #24
  unreachable

50:                                               ; preds = %32
  %51 = load i64, ptr @rb_eRuntimeError, align 8, !tbaa !7
  %52 = load ptr, ptr %6, align 8, !tbaa !103
  %53 = getelementptr inbounds nuw %struct.dump_call_arg, ptr %52, i32 0, i32 0
  %54 = load i64, ptr %53, align 8, !tbaa !81
  %55 = call i64 @rb_class_of(i64 noundef %54) #27
  call void (i64, ptr, ...) @rb_raise(i64 noundef %51, ptr noundef @.str.54, i64 noundef %55) #24
  unreachable

56:                                               ; preds = %23
  store i32 0, ptr %9, align 4
  br label %57

57:                                               ; preds = %56, %22
  call void @llvm.lifetime.end.p0(i64 16, ptr %8) #23
  call void @llvm.lifetime.end.p0(i64 4, ptr %7) #23
  %58 = load i32, ptr %9, align 4
  switch i32 %58, label %60 [
    i32 0, label %59
    i32 1, label %59
  ]

59:                                               ; preds = %57, %57
  ret void

60:                                               ; preds = %57
  unreachable
}