; Function Attrs: nounwind sspstrong uwtable
define internal fastcc void @w_ivar_each(i64 noundef %0, i64 noundef %1, ptr noundef nonnull %2) unnamed_addr #0 {
  %4 = alloca %struct.w_ivar_arg, align 8
  %5 = load i64, ptr %2, align 8, !tbaa !70
  %6 = tail call i32 @rb_shape_get_shape_id(i64 noundef %5) #22
  call void @llvm.lifetime.start.p0(i64 16, ptr nonnull %4) #22
  store ptr %2, ptr %4, align 8, !tbaa !139
  %7 = getelementptr inbounds nuw i8, ptr %4, i64 8
  store i64 %1, ptr %7, align 8, !tbaa !142
  %.not = icmp eq i64 %1, 0
  br i1 %.not, label %24, label %8

8:                                                ; preds = %3
  %9 = ptrtoint ptr %4 to i64
  call void @rb_ivar_foreach(i64 noundef %0, ptr noundef nonnull @w_obj_each, i64 noundef %9) #22
  %10 = load i64, ptr %2, align 8, !tbaa !70
  %11 = call i32 @rb_shape_get_shape_id(i64 noundef %10) #22
  %.not12 = icmp eq i32 %6, %11
  br i1 %.not12, label %24, label %12

12:                                               ; preds = %8
  %13 = call ptr @rb_shape_get_shape_by_id(i32 noundef %6) #22
  %14 = load i64, ptr %2, align 8, !tbaa !70
  %15 = call ptr @rb_shape_get_shape(i64 noundef %14) #22
  %16 = call i64 @rb_shape_depth(ptr noundef %13) #22
  %17 = call i64 @rb_shape_depth(ptr noundef %15) #22
  %18 = icmp ugt i64 %16, %17
  %19 = load i64, ptr @rb_eRuntimeError, align 8, !tbaa !7
  %20 = load i64, ptr %2, align 8, !tbaa !70
  %21 = call fastcc i64 @rb_class_of(i64 noundef %20) #27
  br i1 %18, label %22, label %23

22:                                               ; preds = %12
  call void (i64, ptr, ...) @rb_raise(i64 noundef %19, ptr noundef nonnull @.str.53, i64 noundef %21) #23
  unreachable

23:                                               ; preds = %12
  call void (i64, ptr, ...) @rb_raise(i64 noundef %19, ptr noundef nonnull @.str.54, i64 noundef %21) #23
  unreachable

24:                                               ; preds = %8, %3
  call void @llvm.lifetime.end.p0(i64 16, ptr nonnull %4) #22
  ret void
}